TN:gcov_test
SF:/Users/milkfist/cp/CPP1_s21_matrixplus-0/src/s21_matrix_oop.cc
FN:4,_ZN9S21Matrix15AllocateMemory_Ev
FNDA:250,_ZN9S21Matrix15AllocateMemory_Ev
FN:11,_ZN9S21Matrix10CopyValue_ERKS_
FNDA:34,_ZN9S21Matrix10CopyValue_ERKS_
FN:19,_ZN9S21Matrix12CleanMemory_Ev
FNDA:250,_ZN9S21Matrix12CleanMemory_Ev
FN:26,_ZN9S21Matrix4Det_Ei
FNDA:68,_ZN9S21Matrix4Det_Ei
FN:50,_ZN9S21Matrix11MiniMatrix_Eii
FNDA:36,_ZN9S21Matrix11MiniMatrix_Eii
FN:69,_ZN9S21MatrixC2Ev
FNDA:0,_ZN9S21MatrixC2Ev
FN:69,_ZN9S21MatrixC1Ev
FNDA:94,_ZN9S21MatrixC1Ev
FN:75,_ZN9S21MatrixC2Eii
FNDA:0,_ZN9S21MatrixC2Eii
FN:75,_ZN9S21MatrixC1Eii
FNDA:126,_ZN9S21MatrixC1Eii
FN:82,_ZN9S21MatrixC1ERKS_
FNDA:16,_ZN9S21MatrixC1ERKS_
FN:82,_ZN9S21MatrixC2ERKS_
FNDA:0,_ZN9S21MatrixC2ERKS_
FN:88,_ZN9S21MatrixC2EOS_
FNDA:0,_ZN9S21MatrixC2EOS_
FN:88,_ZN9S21MatrixC1EOS_
FNDA:2,_ZN9S21MatrixC1EOS_
FN:96,_ZN9S21MatrixD2Ev
FNDA:0,_ZN9S21MatrixD2Ev
FN:96,_ZN9S21MatrixD1Ev
FNDA:236,_ZN9S21MatrixD1Ev
FN:106,_ZNK9S21Matrix7GetRowsEv
FNDA:24,_ZNK9S21Matrix7GetRowsEv
FN:108,_ZNK9S21Matrix7GetColsEv
FNDA:40,_ZNK9S21Matrix7GetColsEv
FN:110,_ZNK9S21Matrix9GetMatrixEv
FNDA:2,_ZNK9S21Matrix9GetMatrixEv
FN:112,_ZN9S21Matrix7SetRowsEi
FNDA:4,_ZN9S21Matrix7SetRowsEi
FN:125,_ZN9S21Matrix7SetColsEi
FNDA:4,_ZN9S21Matrix7SetColsEi
FN:139,_ZN9S21Matrix4FillEd
FNDA:64,_ZN9S21Matrix4FillEd
FN:147,_ZN9S21Matrix4FillEdd
FNDA:42,_ZN9S21Matrix4FillEdd
FN:156,_ZN9S21Matrix7FillRevEdd
FNDA:0,_ZN9S21Matrix7FillRevEdd
FN:166,_ZNK9S21Matrix8EqMatrixERKS_
FNDA:52,_ZNK9S21Matrix8EqMatrixERKS_
FN:183,_ZN9S21Matrix9SumMatrixERKS_
FNDA:8,_ZN9S21Matrix9SumMatrixERKS_
FN:194,_ZN9S21Matrix9SubMatrixERKS_
FNDA:8,_ZN9S21Matrix9SubMatrixERKS_
FN:205,_ZN9S21Matrix9MulNumberEd
FNDA:8,_ZN9S21Matrix9MulNumberEd
FN:213,_ZN9S21Matrix9MulMatrixERKS_
FNDA:14,_ZN9S21Matrix9MulMatrixERKS_
FN:228,_ZN9S21Matrix9TransposeEv
FNDA:6,_ZN9S21Matrix9TransposeEv
FN:238,_ZN9S21Matrix15CalcComplementsEv
FNDA:6,_ZN9S21Matrix15CalcComplementsEv
FN:253,_ZN9S21Matrix11DeterminantEv
FNDA:48,_ZN9S21Matrix11DeterminantEv
FN:266,_ZN9S21Matrix13InverseMatrixEv
FNDA:6,_ZN9S21Matrix13InverseMatrixEv
FN:277,_ZNK9S21MatrixplERKS_
FNDA:2,_ZNK9S21MatrixplERKS_
FN:283,_ZNK9S21MatrixmiERKS_
FNDA:2,_ZNK9S21MatrixmiERKS_
FN:289,_ZNK9S21MatrixmlERKd
FNDA:2,_ZNK9S21MatrixmlERKd
FN:295,_ZNK9S21MatrixmlERKS_
FNDA:4,_ZNK9S21MatrixmlERKS_
FN:301,_ZNK9S21MatrixeqERKS_
FNDA:4,_ZNK9S21MatrixeqERKS_
FN:305,_ZN9S21MatrixaSERKS_
FNDA:18,_ZN9S21MatrixaSERKS_
FN:314,_ZN9S21MatrixpLERKS_
FNDA:4,_ZN9S21MatrixpLERKS_
FN:319,_ZN9S21MatrixmIERKS_
FNDA:4,_ZN9S21MatrixmIERKS_
FN:324,_ZN9S21MatrixmLERKd
FNDA:2,_ZN9S21MatrixmLERKd
FN:329,_ZN9S21MatrixmLERKS_
FNDA:4,_ZN9S21MatrixmLERKS_
FN:334,_ZN9S21MatrixclEii
FNDA:158,_ZN9S21MatrixclEii
FN:341,_ZNK9S21MatrixclEii
FNDA:2,_ZNK9S21MatrixclEii
FN:349,_ZNK9S21Matrix2PrEv
FNDA:0,_ZNK9S21Matrix2PrEv
FNF:45
FNH:38
DA:4,250
DA:5,250
DA:6,984
DA:7,3264
DA:9,250
DA:11,34
DA:12,136
DA:13,454
DA:14,352
DA:17,34
DA:19,250
DA:20,984
DA:21,734
DA:23,250
DA:24,250
DA:26,68
DA:27,68
DA:28,68
DA:29,60
DA:31,16
DA:32,32
DA:33,24
DA:34,72
DA:35,48
DA:36,192
DA:37,144
DA:38,96
DA:39,96
DA:42,48
DA:44,24
DA:47,68
DA:50,36
DA:51,36
DA:52,36
DA:53,144
DA:54,108
DA:55,108
DA:56,288
DA:57,216
DA:58,144
DA:59,144
DA:62,72
DA:65,36
DA:69,94
DA:70,94
DA:71,94
DA:72,94
DA:73,94
DA:69,0
DA:70,0
DA:71,0
DA:72,0
DA:73,0
DA:75,126
DA:76,126
DA:77,4
DA:79,122
DA:80,122
DA:75,0
DA:76,0
DA:77,0
DA:79,0
DA:80,0
DA:82,16
DA:83,16
DA:84,16
DA:85,16
DA:86,16
DA:82,0
DA:83,0
DA:84,0
DA:85,0
DA:86,0
DA:88,2
DA:89,2
DA:90,2
DA:91,2
DA:92,2
DA:93,2
DA:94,2
DA:88,0
DA:89,0
DA:90,0
DA:91,0
DA:92,0
DA:93,0
DA:94,0
DA:96,472
DA:97,236
DA:98,232
DA:100,236
DA:101,236
DA:102,236
DA:103,236
DA:96,0
DA:97,0
DA:98,0
DA:100,0
DA:101,0
DA:102,0
DA:103,0
DA:106,24
DA:108,40
DA:110,2
DA:112,4
DA:113,4
DA:114,2
DA:116,4
DA:117,6
DA:118,16
DA:119,12
DA:122,2
DA:123,2
DA:125,4
DA:126,4
DA:127,2
DA:129,4
DA:130,6
DA:131,24
DA:132,20
DA:135,2
DA:136,2
DA:139,64
DA:140,278
DA:141,1026
DA:142,812
DA:145,64
DA:147,42
DA:148,174
DA:149,596
DA:150,464
DA:151,464
DA:154,42
DA:156,0
DA:157,0
DA:158,0
DA:159,0
DA:160,0
DA:163,0
DA:166,52
DA:167,52
DA:168,180
DA:169,618
DA:170,488
DA:171,10
DA:172,10
DA:173,10
DA:176,40
DA:178,2
DA:180,40
DA:183,8
DA:184,8
DA:185,2
DA:187,26
DA:188,96
DA:189,76
DA:192,6
DA:194,8
DA:195,8
DA:196,2
DA:198,26
DA:199,96
DA:200,76
DA:203,6
DA:205,8
DA:206,34
DA:207,120
DA:208,94
DA:211,8
DA:213,14
DA:214,14
DA:215,6
DA:217,16
DA:218,32
DA:219,102
DA:220,288
DA:221,210
DA:225,8
DA:226,8
DA:228,6
DA:229,6
DA:230,24
DA:231,72
DA:232,54
DA:235,6
DA:238,6
DA:239,6
DA:240,2
DA:242,4
DA:243,16
DA:244,48
DA:245,36
DA:246,36
DA:247,36
DA:250,4
DA:253,48
DA:254,48
DA:255,4
DA:258,44
DA:259,0
DA:261,44
DA:263,44
DA:266,6
DA:267,6
DA:268,2
DA:270,4
DA:271,2
DA:272,2
DA:273,4
DA:277,2
DA:278,2
DA:279,2
DA:280,2
DA:283,2
DA:284,2
DA:285,2
DA:286,2
DA:289,2
DA:290,2
DA:291,2
DA:292,2
DA:295,4
DA:296,4
DA:297,4
DA:298,2
DA:301,4
DA:302,4
DA:305,18
DA:306,18
DA:307,18
DA:308,18
DA:309,18
DA:310,18
DA:311,18
DA:314,4
DA:315,4
DA:316,2
DA:319,4
DA:320,4
DA:321,2
DA:324,2
DA:325,2
DA:326,2
DA:329,4
DA:330,4
DA:331,2
DA:334,158
DA:335,158
DA:336,2
DA:338,156
DA:341,2
DA:342,2
DA:343,0
DA:345,2
DA:349,0
DA:350,0
DA:351,0
DA:352,0
DA:354,0
DA:356,0
LF:260
LH:217
end_of_record
TN:gcov_test
SF:/Users/milkfist/cp/CPP1_s21_matrixplus-0/src/s21_test.cc
FN:6,_ZN25Constructors_Default_TestC1Ev
FNDA:2,_ZN25Constructors_Default_TestC1Ev
FN:6,_ZN25Constructors_Default_Test8TestBodyEv
FNDA:2,_ZN25Constructors_Default_Test8TestBodyEv
FN:6,_ZN25Constructors_Default_TestD1Ev
FNDA:2,_ZN25Constructors_Default_TestD1Ev
FN:6,_ZN25Constructors_Default_TestD0Ev
FNDA:2,_ZN25Constructors_Default_TestD0Ev
FN:12,_ZN33Constructors_With_parameters_TestC1Ev
FNDA:2,_ZN33Constructors_With_parameters_TestC1Ev
FN:12,_ZN33Constructors_With_parameters_Test8TestBodyEv
FNDA:2,_ZN33Constructors_With_parameters_Test8TestBodyEv
FN:12,_ZN33Constructors_With_parameters_TestD1Ev
FNDA:2,_ZN33Constructors_With_parameters_TestD1Ev
FN:12,_ZN33Constructors_With_parameters_TestD0Ev
FNDA:2,_ZN33Constructors_With_parameters_TestD0Ev
FN:22,_ZN22Constructors_Copy_TestC1Ev
FNDA:2,_ZN22Constructors_Copy_TestC1Ev
FN:22,_ZN22Constructors_Copy_Test8TestBodyEv
FNDA:2,_ZN22Constructors_Copy_Test8TestBodyEv
FN:22,_ZN22Constructors_Copy_TestD0Ev
FNDA:2,_ZN22Constructors_Copy_TestD0Ev
FN:22,_ZN22Constructors_Copy_TestD1Ev
FNDA:2,_ZN22Constructors_Copy_TestD1Ev
FN:36,_ZN22Constructors_Move_TestC1Ev
FNDA:2,_ZN22Constructors_Move_TestC1Ev
FN:36,_ZN22Constructors_Move_Test8TestBodyEv
FNDA:2,_ZN22Constructors_Move_Test8TestBodyEv
FN:36,_ZN22Constructors_Move_TestD0Ev
FNDA:2,_ZN22Constructors_Move_TestD0Ev
FN:36,_ZN22Constructors_Move_TestD1Ev
FNDA:2,_ZN22Constructors_Move_TestD1Ev
FN:47,_ZN28Constructors_Destructor_TestC1Ev
FNDA:2,_ZN28Constructors_Destructor_TestC1Ev
FN:47,_ZN28Constructors_Destructor_Test8TestBodyEv
FNDA:2,_ZN28Constructors_Destructor_Test8TestBodyEv
FN:47,_ZN28Constructors_Destructor_TestD1Ev
FNDA:2,_ZN28Constructors_Destructor_TestD1Ev
FN:47,_ZN28Constructors_Destructor_TestD0Ev
FNDA:2,_ZN28Constructors_Destructor_TestD0Ev
FN:57,_ZN17Method_Equal_TestD1Ev
FNDA:2,_ZN17Method_Equal_TestD1Ev
FN:57,_ZN17Method_Equal_TestD0Ev
FNDA:2,_ZN17Method_Equal_TestD0Ev
FN:57,_ZN17Method_Equal_Test8TestBodyEv
FNDA:2,_ZN17Method_Equal_Test8TestBodyEv
FN:57,_ZN17Method_Equal_TestC1Ev
FNDA:2,_ZN17Method_Equal_TestC1Ev
FN:66,_ZN15Method_Sum_TestC1Ev
FNDA:2,_ZN15Method_Sum_TestC1Ev
FN:66,_ZN15Method_Sum_TestD1Ev
FNDA:2,_ZN15Method_Sum_TestD1Ev
FN:66,_ZN15Method_Sum_Test8TestBodyEv
FNDA:2,_ZN15Method_Sum_Test8TestBodyEv
FN:66,_ZN15Method_Sum_TestD0Ev
FNDA:2,_ZN15Method_Sum_TestD0Ev
FN:77,_ZN15Method_Sub_TestD1Ev
FNDA:2,_ZN15Method_Sub_TestD1Ev
FN:77,_ZN15Method_Sub_TestC1Ev
FNDA:2,_ZN15Method_Sub_TestC1Ev
FN:77,_ZN15Method_Sub_TestD0Ev
FNDA:2,_ZN15Method_Sub_TestD0Ev
FN:77,_ZN15Method_Sub_Test8TestBodyEv
FNDA:2,_ZN15Method_Sub_Test8TestBodyEv
FN:88,_ZN21Method_MulNumber_TestD0Ev
FNDA:2,_ZN21Method_MulNumber_TestD0Ev
FN:88,_ZN21Method_MulNumber_TestD1Ev
FNDA:2,_ZN21Method_MulNumber_TestD1Ev
FN:88,_ZN21Method_MulNumber_Test8TestBodyEv
FNDA:2,_ZN21Method_MulNumber_Test8TestBodyEv
FN:88,_ZN21Method_MulNumber_TestC1Ev
FNDA:2,_ZN21Method_MulNumber_TestC1Ev
FN:99,_ZN21Method_MulMatrix_TestC1Ev
FNDA:2,_ZN21Method_MulMatrix_TestC1Ev
FN:99,_ZN21Method_MulMatrix_TestD0Ev
FNDA:2,_ZN21Method_MulMatrix_TestD0Ev
FN:99,_ZN21Method_MulMatrix_TestD1Ev
FNDA:2,_ZN21Method_MulMatrix_TestD1Ev
FN:99,_ZN21Method_MulMatrix_Test8TestBodyEv
FNDA:2,_ZN21Method_MulMatrix_Test8TestBodyEv
FN:144,_ZN21Method_Transpose_TestC1Ev
FNDA:2,_ZN21Method_Transpose_TestC1Ev
FN:144,_ZN21Method_Transpose_Test8TestBodyEv
FNDA:2,_ZN21Method_Transpose_Test8TestBodyEv
FN:144,_ZN21Method_Transpose_TestD0Ev
FNDA:2,_ZN21Method_Transpose_TestD0Ev
FN:144,_ZN21Method_Transpose_TestD1Ev
FNDA:2,_ZN21Method_Transpose_TestD1Ev
FN:165,_ZN23Method_Complements_TestC1Ev
FNDA:2,_ZN23Method_Complements_TestC1Ev
FN:165,_ZN23Method_Complements_Test8TestBodyEv
FNDA:2,_ZN23Method_Complements_Test8TestBodyEv
FN:165,_ZN23Method_Complements_TestD0Ev
FNDA:2,_ZN23Method_Complements_TestD0Ev
FN:165,_ZN23Method_Complements_TestD1Ev
FNDA:2,_ZN23Method_Complements_TestD1Ev
FN:184,_ZN23Method_Determinant_TestC1Ev
FNDA:2,_ZN23Method_Determinant_TestC1Ev
FN:184,_ZN23Method_Determinant_Test8TestBodyEv
FNDA:2,_ZN23Method_Determinant_Test8TestBodyEv
FN:184,_ZN23Method_Determinant_TestD0Ev
FNDA:2,_ZN23Method_Determinant_TestD0Ev
FN:184,_ZN23Method_Determinant_TestD1Ev
FNDA:2,_ZN23Method_Determinant_TestD1Ev
FN:201,_ZN20Methods_Inverse_TestC1Ev
FNDA:2,_ZN20Methods_Inverse_TestC1Ev
FN:201,_ZN20Methods_Inverse_TestD1Ev
FNDA:2,_ZN20Methods_Inverse_TestD1Ev
FN:201,_ZN20Methods_Inverse_TestD0Ev
FNDA:2,_ZN20Methods_Inverse_TestD0Ev
FN:201,_ZN20Methods_Inverse_Test8TestBodyEv
FNDA:2,_ZN20Methods_Inverse_Test8TestBodyEv
FN:233,_ZN17Operator_Sum_TestD0Ev
FNDA:2,_ZN17Operator_Sum_TestD0Ev
FN:233,_ZN17Operator_Sum_TestD1Ev
FNDA:2,_ZN17Operator_Sum_TestD1Ev
FN:233,_ZN17Operator_Sum_Test8TestBodyEv
FNDA:2,_ZN17Operator_Sum_Test8TestBodyEv
FN:233,_ZN17Operator_Sum_TestC1Ev
FNDA:2,_ZN17Operator_Sum_TestC1Ev
FN:240,_ZN17Operator_Sub_TestD0Ev
FNDA:2,_ZN17Operator_Sub_TestD0Ev
FN:240,_ZN17Operator_Sub_TestD1Ev
FNDA:2,_ZN17Operator_Sub_TestD1Ev
FN:240,_ZN17Operator_Sub_Test8TestBodyEv
FNDA:2,_ZN17Operator_Sub_Test8TestBodyEv
FN:240,_ZN17Operator_Sub_TestC1Ev
FNDA:2,_ZN17Operator_Sub_TestC1Ev
FN:247,_ZN20Operator_MulNum_TestC1Ev
FNDA:2,_ZN20Operator_MulNum_TestC1Ev
FN:247,_ZN20Operator_MulNum_Test8TestBodyEv
FNDA:2,_ZN20Operator_MulNum_Test8TestBodyEv
FN:247,_ZN20Operator_MulNum_TestD0Ev
FNDA:2,_ZN20Operator_MulNum_TestD0Ev
FN:247,_ZN20Operator_MulNum_TestD1Ev
FNDA:2,_ZN20Operator_MulNum_TestD1Ev
FN:254,_ZN20Operator_MulMat_Test8TestBodyEv
FNDA:2,_ZN20Operator_MulMat_Test8TestBodyEv
FN:254,_ZN20Operator_MulMat_TestD0Ev
FNDA:2,_ZN20Operator_MulMat_TestD0Ev
FN:254,_ZN20Operator_MulMat_TestC1Ev
FNDA:2,_ZN20Operator_MulMat_TestC1Ev
FN:254,_ZN20Operator_MulMat_TestD1Ev
FNDA:2,_ZN20Operator_MulMat_TestD1Ev
FN:263,_ZN19Operator_Equal_TestD1Ev
FNDA:2,_ZN19Operator_Equal_TestD1Ev
FN:263,_ZN19Operator_Equal_TestC1Ev
FNDA:2,_ZN19Operator_Equal_TestC1Ev
FN:263,_ZN19Operator_Equal_TestD0Ev
FNDA:2,_ZN19Operator_Equal_TestD0Ev
FN:263,_ZN19Operator_Equal_Test8TestBodyEv
FNDA:2,_ZN19Operator_Equal_Test8TestBodyEv
FN:270,_ZN24Operator_Assignment_TestD0Ev
FNDA:2,_ZN24Operator_Assignment_TestD0Ev
FN:270,_ZN24Operator_Assignment_TestC1Ev
FNDA:2,_ZN24Operator_Assignment_TestC1Ev
FN:270,_ZN24Operator_Assignment_Test8TestBodyEv
FNDA:2,_ZN24Operator_Assignment_Test8TestBodyEv
FN:270,_ZN24Operator_Assignment_TestD1Ev
FNDA:2,_ZN24Operator_Assignment_TestD1Ev
FN:277,_ZN23Operator_SumAssign_TestD0Ev
FNDA:2,_ZN23Operator_SumAssign_TestD0Ev
FN:277,_ZN23Operator_SumAssign_TestC1Ev
FNDA:2,_ZN23Operator_SumAssign_TestC1Ev
FN:277,_ZN23Operator_SumAssign_Test8TestBodyEv
FNDA:2,_ZN23Operator_SumAssign_Test8TestBodyEv
FN:277,_ZN23Operator_SumAssign_TestD1Ev
FNDA:2,_ZN23Operator_SumAssign_TestD1Ev
FN:285,_ZN23Operator_SubAssign_TestC1Ev
FNDA:2,_ZN23Operator_SubAssign_TestC1Ev
FN:285,_ZN23Operator_SubAssign_Test8TestBodyEv
FNDA:2,_ZN23Operator_SubAssign_Test8TestBodyEv
FN:285,_ZN23Operator_SubAssign_TestD1Ev
FNDA:2,_ZN23Operator_SubAssign_TestD1Ev
FN:285,_ZN23Operator_SubAssign_TestD0Ev
FNDA:2,_ZN23Operator_SubAssign_TestD0Ev
FN:293,_ZN26Operator_MulNumAssign_TestD1Ev
FNDA:2,_ZN26Operator_MulNumAssign_TestD1Ev
FN:293,_ZN26Operator_MulNumAssign_TestC1Ev
FNDA:2,_ZN26Operator_MulNumAssign_TestC1Ev
FN:293,_ZN26Operator_MulNumAssign_Test8TestBodyEv
FNDA:2,_ZN26Operator_MulNumAssign_Test8TestBodyEv
FN:293,_ZN26Operator_MulNumAssign_TestD0Ev
FNDA:2,_ZN26Operator_MulNumAssign_TestD0Ev
FN:301,_ZN26Operator_MulMatAssign_TestD1Ev
FNDA:2,_ZN26Operator_MulMatAssign_TestD1Ev
FN:301,_ZN26Operator_MulMatAssign_Test8TestBodyEv
FNDA:2,_ZN26Operator_MulMatAssign_Test8TestBodyEv
FN:301,_ZN26Operator_MulMatAssign_TestD0Ev
FNDA:2,_ZN26Operator_MulMatAssign_TestD0Ev
FN:301,_ZN26Operator_MulMatAssign_TestC1Ev
FNDA:2,_ZN26Operator_MulMatAssign_TestC1Ev
FN:310,_ZN19Operator_Index_Test8TestBodyEv
FNDA:2,_ZN19Operator_Index_Test8TestBodyEv
FN:310,_ZN19Operator_Index_TestD1Ev
FNDA:2,_ZN19Operator_Index_TestD1Ev
FN:310,_ZN19Operator_Index_TestD0Ev
FNDA:2,_ZN19Operator_Index_TestD0Ev
FN:310,_ZN19Operator_Index_TestC1Ev
FNDA:2,_ZN19Operator_Index_TestC1Ev
FN:324,_ZN30Accessor_Mutator_Accessor_Test8TestBodyEv
FNDA:2,_ZN30Accessor_Mutator_Accessor_Test8TestBodyEv
FN:324,_ZN30Accessor_Mutator_Accessor_TestD1Ev
FNDA:2,_ZN30Accessor_Mutator_Accessor_TestD1Ev
FN:324,_ZN30Accessor_Mutator_Accessor_TestD0Ev
FNDA:2,_ZN30Accessor_Mutator_Accessor_TestD0Ev
FN:324,_ZN30Accessor_Mutator_Accessor_TestC1Ev
FNDA:2,_ZN30Accessor_Mutator_Accessor_TestC1Ev
FN:330,_ZN29Accessor_Mutator_Mutator_Test8TestBodyEv
FNDA:2,_ZN29Accessor_Mutator_Mutator_Test8TestBodyEv
FN:330,_ZN29Accessor_Mutator_Mutator_TestD1Ev
FNDA:2,_ZN29Accessor_Mutator_Mutator_TestD1Ev
FN:330,_ZN29Accessor_Mutator_Mutator_TestD0Ev
FNDA:2,_ZN29Accessor_Mutator_Mutator_TestD0Ev
FN:330,_ZN29Accessor_Mutator_Mutator_TestC1Ev
FNDA:2,_ZN29Accessor_Mutator_Mutator_TestC1Ev
FN:344,main
FNDA:2,main
FNF:109
FNH:109
DA:6,2
DA:6,2
DA:6,2
DA:6,2
DA:7,4
DA:8,2
DA:9,2
DA:10,2
DA:12,2
DA:12,2
DA:12,2
DA:12,2
DA:13,4
DA:14,2
DA:15,2
DA:16,4
DA:18,4
DA:19,2
DA:20,2
DA:22,2
DA:22,2
DA:22,2
DA:22,2
DA:23,4
DA:24,2
DA:26,4
DA:27,2
DA:28,2
DA:29,8
DA:30,24
DA:31,18
DA:34,2
DA:36,2
DA:36,2
DA:36,2
DA:36,2
DA:37,4
DA:38,2
DA:39,4
DA:40,4
DA:41,2
DA:42,2
DA:43,2
DA:44,2
DA:45,2
DA:47,2
DA:47,2
DA:47,2
DA:47,2
DA:48,4
DA:49,2
DA:50,2
DA:51,2
DA:52,2
DA:53,2
DA:54,2
DA:57,2
DA:57,2
DA:57,2
DA:57,2
DA:58,4
DA:59,2
DA:60,2
DA:61,4
DA:62,2
DA:63,2
DA:64,2
DA:66,2
DA:66,2
DA:66,2
DA:66,2
DA:67,4
DA:68,2
DA:69,2
DA:70,2
DA:71,2
DA:72,2
DA:73,2
DA:74,2
DA:75,2
DA:77,2
DA:77,2
DA:77,2
DA:77,2
DA:78,4
DA:79,2
DA:80,2
DA:81,2
DA:82,2
DA:83,2
DA:84,2
DA:85,2
DA:86,2
DA:88,2
DA:88,2
DA:88,2
DA:88,2
DA:89,4
DA:90,2
DA:91,2
DA:92,2
DA:93,2
DA:94,2
DA:95,2
DA:96,2
DA:97,2
DA:99,2
DA:99,2
DA:99,2
DA:99,2
DA:100,4
DA:101,2
DA:102,4
DA:103,2
DA:104,2
DA:105,4
DA:106,2
DA:107,2
DA:108,2
DA:109,2
DA:110,2
DA:111,2
DA:112,2
DA:113,2
DA:114,2
DA:116,4
DA:117,2
DA:118,4
DA:119,2
DA:120,2
DA:121,4
DA:122,2
DA:123,2
DA:124,2
DA:125,2
DA:126,2
DA:127,2
DA:128,2
DA:129,2
DA:130,2
DA:131,2
DA:132,2
DA:133,2
DA:135,2
DA:136,2
DA:137,2
DA:142,2
DA:144,2
DA:144,2
DA:144,2
DA:144,2
DA:145,4
DA:146,2
DA:147,2
DA:148,2
DA:149,2
DA:150,2
DA:151,2
DA:152,2
DA:153,2
DA:154,2
DA:155,2
DA:156,2
DA:158,2
DA:163,2
DA:165,2
DA:165,2
DA:165,2
DA:165,2
DA:166,4
DA:167,2
DA:168,2
DA:169,2
DA:170,2
DA:171,2
DA:172,2
DA:173,2
DA:174,2
DA:175,2
DA:176,2
DA:177,2
DA:178,2
DA:180,4
DA:181,2
DA:182,2
DA:184,2
DA:184,2
DA:184,2
DA:184,2
DA:185,4
DA:186,2
DA:188,2
DA:189,2
DA:191,4
DA:192,2
DA:199,2
DA:201,2
DA:201,2
DA:201,2
DA:201,2
DA:202,4
DA:203,2
DA:204,2
DA:205,2
DA:206,2
DA:207,2
DA:208,2
DA:209,2
DA:210,2
DA:211,2
DA:212,4
DA:213,4
DA:214,2
DA:215,2
DA:216,2
DA:217,2
DA:218,2
DA:219,2
DA:220,2
DA:221,2
DA:222,2
DA:223,2
DA:225,4
DA:226,2
DA:228,4
DA:229,2
DA:230,2
DA:231,2
DA:233,2
DA:233,2
DA:233,2
DA:233,2
DA:234,4
DA:235,2
DA:236,4
DA:237,2
DA:238,2
DA:240,2
DA:240,2
DA:240,2
DA:240,2
DA:241,4
DA:242,2
DA:243,4
DA:244,2
DA:245,2
DA:247,2
DA:247,2
DA:247,2
DA:247,2
DA:248,4
DA:249,2
DA:250,4
DA:251,2
DA:252,2
DA:254,2
DA:254,2
DA:254,2
DA:254,2
DA:255,4
DA:256,2
DA:257,2
DA:258,2
DA:260,2
DA:261,2
DA:263,2
DA:263,2
DA:263,2
DA:263,2
DA:264,4
DA:265,2
DA:266,2
DA:267,2
DA:268,2
DA:270,2
DA:270,2
DA:270,2
DA:270,2
DA:271,4
DA:272,2
DA:273,2
DA:274,2
DA:275,2
DA:277,2
DA:277,2
DA:277,2
DA:277,2
DA:278,4
DA:279,2
DA:280,2
DA:281,2
DA:282,2
DA:283,2
DA:285,2
DA:285,2
DA:285,2
DA:285,2
DA:286,4
DA:287,2
DA:288,2
DA:289,2
DA:290,2
DA:291,2
DA:293,2
DA:293,2
DA:293,2
DA:293,2
DA:294,4
DA:295,2
DA:296,2
DA:297,2
DA:298,2
DA:299,2
DA:301,2
DA:301,2
DA:301,2
DA:301,2
DA:302,4
DA:303,2
DA:304,2
DA:305,2
DA:307,2
DA:308,2
DA:310,2
DA:310,2
DA:310,2
DA:310,2
DA:311,4
DA:312,2
DA:313,2
DA:315,2
DA:316,2
DA:318,2
DA:320,4
DA:321,2
DA:322,2
DA:324,2
DA:324,2
DA:324,2
DA:324,2
DA:325,4
DA:326,2
DA:327,2
DA:328,2
DA:330,2
DA:330,2
DA:330,2
DA:330,2
DA:331,4
DA:332,2
DA:335,2
DA:336,2
DA:338,2
DA:339,2
DA:342,2
DA:344,2
DA:345,2
DA:346,2
LF:358
LH:358
end_of_record
